; Function Attrs: nounwind uwtable
define void @ossl_quic_conn_force_assist_thread_wake(ptr noundef %0) local_unnamed_addr #0 {
  %2 = alloca %struct.qctx_st, align 8
  call void @llvm.lifetime.start.p0(i64 56, ptr nonnull %2) #12
  %3 = call fastcc range(i32 0, 2) i32 @expect_quic_as(ptr noundef %0, ptr noundef nonnull %2, i32 noundef 1)
  %.not = icmp eq i32 %3, 0
  br i1 %.not, label %13, label %4

4:                                                ; preds = %1
  %5 = getelementptr inbounds nuw i8, ptr %2, i64 24
  %6 = load ptr, ptr %5, align 8, !tbaa !134
  %7 = getelementptr inbounds nuw i8, ptr %6, i64 336
  %8 = load i16, ptr %7, align 8
  %9 = and i16 %8, 9
  %or.cond.not = icmp eq i16 %9, 9
  br i1 %or.cond.not, label %10, label %13

10:                                               ; preds = %4
  %11 = getelementptr inbounds nuw i8, ptr %6, i64 296
  %12 = call i32 @ossl_quic_thread_assist_notify_deadline_changed(ptr noundef nonnull %11) #12
  br label %13

13:                                               ; preds = %4, %10, %1
  call void @llvm.lifetime.end.p0(i64 56, ptr nonnull %2) #12
  ret void
}